	.file	"datos.c"
	.text
	.section	.rodata
	.align 8
.LC0:
	.string	"Seleccione la figura a calcular el \303\241rea y per\303\255metro:"
.LC1:
	.string	"1. Triangulo"
.LC2:
	.string	"2. Paralelogramo"
.LC3:
	.string	"3. Cuadrado"
.LC4:
	.string	"4. Regtangulo"
.LC5:
	.string	"5. Rombo"
.LC6:
	.string	"6. Trapecio"
.LC7:
	.string	"7. Circulo"
.LC8:
	.string	"8. Pol\303\255gono Regular"
.LC9:
	.string	"Ingrese su opci\303\263n: "
.LC10:
	.string	"%d"
	.text
	.globl	seleccionarFiguraArea
	.type	seleccionarFiguraArea, @function
seleccionarFiguraArea:
.LFB0:
	.cfi_startproc
	endbr64
	pushq	%rbp
	.cfi_def_cfa_offset 16
	.cfi_offset 6, -16
	movq	%rsp, %rbp
	.cfi_def_cfa_register 6
	subq	$16, %rsp
	movq	%fs:40, %rax
	movq	%rax, -8(%rbp)
	xorl	%eax, %eax
	leaq	.LC0(%rip), %rax
	movq	%rax, %rdi
	call	puts@PLT
	leaq	.LC1(%rip), %rax
	movq	%rax, %rdi
	call	puts@PLT
	leaq	.LC2(%rip), %rax
	movq	%rax, %rdi
	call	puts@PLT
	leaq	.LC3(%rip), %rax
	movq	%rax, %rdi
	call	puts@PLT
	leaq	.LC4(%rip), %rax
	movq	%rax, %rdi
	call	puts@PLT
	leaq	.LC5(%rip), %rax
	movq	%rax, %rdi
	call	puts@PLT
	leaq	.LC6(%rip), %rax
	movq	%rax, %rdi
	call	puts@PLT
	leaq	.LC7(%rip), %rax
	movq	%rax, %rdi
	call	puts@PLT
	leaq	.LC8(%rip), %rax
	movq	%rax, %rdi
	call	puts@PLT
	leaq	.LC9(%rip), %rax
	movq	%rax, %rdi
	movl	$0, %eax
	call	printf@PLT
	leaq	-12(%rbp), %rax
	movq	%rax, %rsi
	leaq	.LC10(%rip), %rax
	movq	%rax, %rdi
	movl	$0, %eax
	call	__isoc99_scanf@PLT
	movl	-12(%rbp), %eax
	movq	-8(%rbp), %rdx
	subq	%fs:40, %rdx
	je	.L3
	call	__stack_chk_fail@PLT
.L3:
	leave
	.cfi_def_cfa 7, 8
	ret
	.cfi_endproc
.LFE0:
	.size	seleccionarFiguraArea, .-seleccionarFiguraArea
	.section	.rodata
	.align 8
.LC11:
	.string	"Cuanto mide la base del triangulo: "
.LC12:
	.string	"%f"
	.align 8
.LC13:
	.string	"Cuanto mide la altura del triangulo: "
	.text
	.globl	calcularTriangulo
	.type	calcularTriangulo, @function
calcularTriangulo:
.LFB1:
	.cfi_startproc
	endbr64
	pushq	%rbp
	.cfi_def_cfa_offset 16
	.cfi_offset 6, -16
	movq	%rsp, %rbp
	.cfi_def_cfa_register 6
	subq	$16, %rsp
	movq	%fs:40, %rax
	movq	%rax, -8(%rbp)
	xorl	%eax, %eax
	leaq	.LC11(%rip), %rax
	movq	%rax, %rdi
	movl	$0, %eax
	call	printf@PLT
	leaq	-16(%rbp), %rax
	movq	%rax, %rsi
	leaq	.LC12(%rip), %rax
	movq	%rax, %rdi
	movl	$0, %eax
	call	__isoc99_scanf@PLT
	leaq	.LC13(%rip), %rax
	movq	%rax, %rdi
	movl	$0, %eax
	call	printf@PLT
	leaq	-12(%rbp), %rax
	movq	%rax, %rsi
	leaq	.LC12(%rip), %rax
	movq	%rax, %rdi
	movl	$0, %eax
	call	__isoc99_scanf@PLT
	movss	-12(%rbp), %xmm0
	movl	-16(%rbp), %eax
	movaps	%xmm0, %xmm1
	movd	%eax, %xmm0
	call	calcular_area_perimetro_triangulo@PLT
	nop
	movq	-8(%rbp), %rax
	subq	%fs:40, %rax
	je	.L5
	call	__stack_chk_fail@PLT
.L5:
	leave
	.cfi_def_cfa 7, 8
	ret
	.cfi_endproc
.LFE1:
	.size	calcularTriangulo, .-calcularTriangulo
	.section	.rodata
	.align 8
.LC14:
	.string	"Ingrese la base del paralelogramo: "
	.align 8
.LC15:
	.string	"Ingrese la altura del paralelogramo: "
	.align 8
.LC16:
	.string	"Ingrese el lado del paralelogramo: "
	.text
	.globl	calcularParalelogramo
	.type	calcularParalelogramo, @function
calcularParalelogramo:
.LFB2:
	.cfi_startproc
	endbr64
	pushq	%rbp
	.cfi_def_cfa_offset 16
	.cfi_offset 6, -16
	movq	%rsp, %rbp
	.cfi_def_cfa_register 6
	subq	$32, %rsp
	movq	%fs:40, %rax
	movq	%rax, -8(%rbp)
	xorl	%eax, %eax
	leaq	.LC14(%rip), %rax
	movq	%rax, %rdi
	movl	$0, %eax
	call	printf@PLT
	leaq	-20(%rbp), %rax
	movq	%rax, %rsi
	leaq	.LC12(%rip), %rax
	movq	%rax, %rdi
	movl	$0, %eax
	call	__isoc99_scanf@PLT
	leaq	.LC15(%rip), %rax
	movq	%rax, %rdi
	movl	$0, %eax
	call	printf@PLT
	leaq	-16(%rbp), %rax
	movq	%rax, %rsi
	leaq	.LC12(%rip), %rax
	movq	%rax, %rdi
	movl	$0, %eax
	call	__isoc99_scanf@PLT
	leaq	.LC16(%rip), %rax
	movq	%rax, %rdi
	movl	$0, %eax
	call	printf@PLT
	leaq	-12(%rbp), %rax
	movq	%rax, %rsi
	leaq	.LC12(%rip), %rax
	movq	%rax, %rdi
	movl	$0, %eax
	call	__isoc99_scanf@PLT
	movss	-12(%rbp), %xmm1
	movss	-16(%rbp), %xmm0
	movl	-20(%rbp), %eax
	movaps	%xmm1, %xmm2
	movaps	%xmm0, %xmm1
	movd	%eax, %xmm0
	call	calcular_area_perimetro_paralelogramo@PLT
	nop
	movq	-8(%rbp), %rax
	subq	%fs:40, %rax
	je	.L7
	call	__stack_chk_fail@PLT
.L7:
	leave
	.cfi_def_cfa 7, 8
	ret
	.cfi_endproc
.LFE2:
	.size	calcularParalelogramo, .-calcularParalelogramo
	.section	.rodata
	.align 8
.LC17:
	.string	"Ingrese el lado del cuadrado: "
	.text
	.globl	calcularCuadrado
	.type	calcularCuadrado, @function
calcularCuadrado:
.LFB3:
	.cfi_startproc
	endbr64
	pushq	%rbp
	.cfi_def_cfa_offset 16
	.cfi_offset 6, -16
	movq	%rsp, %rbp
	.cfi_def_cfa_register 6
	subq	$16, %rsp
	movq	%fs:40, %rax
	movq	%rax, -8(%rbp)
	xorl	%eax, %eax
	leaq	.LC17(%rip), %rax
	movq	%rax, %rdi
	movl	$0, %eax
	call	printf@PLT
	leaq	-12(%rbp), %rax
	movq	%rax, %rsi
	leaq	.LC12(%rip), %rax
	movq	%rax, %rdi
	movl	$0, %eax
	call	__isoc99_scanf@PLT
	movl	-12(%rbp), %eax
	movd	%eax, %xmm0
	call	calcular_area_perimetro_cuadrado@PLT
	nop
	movq	-8(%rbp), %rax
	subq	%fs:40, %rax
	je	.L9
	call	__stack_chk_fail@PLT
.L9:
	leave
	.cfi_def_cfa 7, 8
	ret
	.cfi_endproc
.LFE3:
	.size	calcularCuadrado, .-calcularCuadrado
	.section	.rodata
	.align 8
.LC18:
	.string	"Ingrese el largo del rect\303\241ngulo: "
	.align 8
.LC19:
	.string	"Ingrese el ancho del rect\303\241ngulo: "
	.text
	.globl	calcularRegtangulo
	.type	calcularRegtangulo, @function
calcularRegtangulo:
.LFB4:
	.cfi_startproc
	endbr64
	pushq	%rbp
	.cfi_def_cfa_offset 16
	.cfi_offset 6, -16
	movq	%rsp, %rbp
	.cfi_def_cfa_register 6
	subq	$16, %rsp
	movq	%fs:40, %rax
	movq	%rax, -8(%rbp)
	xorl	%eax, %eax
	leaq	.LC18(%rip), %rax
	movq	%rax, %rdi
	movl	$0, %eax
	call	printf@PLT
	leaq	-16(%rbp), %rax
	movq	%rax, %rsi
	leaq	.LC12(%rip), %rax
	movq	%rax, %rdi
	movl	$0, %eax
	call	__isoc99_scanf@PLT
	leaq	.LC19(%rip), %rax
	movq	%rax, %rdi
	movl	$0, %eax
	call	printf@PLT
	leaq	-12(%rbp), %rax
	movq	%rax, %rsi
	leaq	.LC12(%rip), %rax
	movq	%rax, %rdi
	movl	$0, %eax
	call	__isoc99_scanf@PLT
	movss	-12(%rbp), %xmm0
	movl	-16(%rbp), %eax
	movaps	%xmm0, %xmm1
	movd	%eax, %xmm0
	call	calcular_area_perimetro_rectangulo@PLT
	nop
	movq	-8(%rbp), %rax
	subq	%fs:40, %rax
	je	.L11
	call	__stack_chk_fail@PLT
.L11:
	leave
	.cfi_def_cfa 7, 8
	ret
	.cfi_endproc
.LFE4:
	.size	calcularRegtangulo, .-calcularRegtangulo
	.section	.rodata
	.align 8
.LC20:
	.string	"Ingrese la longitud de la diagonal 1: "
	.align 8
.LC21:
	.string	"Ingrese la longitud de la diagonal 2: "
	.text
	.globl	calcularRombo
	.type	calcularRombo, @function
calcularRombo:
.LFB5:
	.cfi_startproc
	endbr64
	pushq	%rbp
	.cfi_def_cfa_offset 16
	.cfi_offset 6, -16
	movq	%rsp, %rbp
	.cfi_def_cfa_register 6
	subq	$16, %rsp
	movq	%fs:40, %rax
	movq	%rax, -8(%rbp)
	xorl	%eax, %eax
	leaq	.LC20(%rip), %rax
	movq	%rax, %rdi
	movl	$0, %eax
	call	printf@PLT
	leaq	-16(%rbp), %rax
	movq	%rax, %rsi
	leaq	.LC12(%rip), %rax
	movq	%rax, %rdi
	movl	$0, %eax
	call	__isoc99_scanf@PLT
	leaq	.LC21(%rip), %rax
	movq	%rax, %rdi
	movl	$0, %eax
	call	printf@PLT
	leaq	-12(%rbp), %rax
	movq	%rax, %rsi
	leaq	.LC12(%rip), %rax
	movq	%rax, %rdi
	movl	$0, %eax
	call	__isoc99_scanf@PLT
	movss	-12(%rbp), %xmm0
	movl	-16(%rbp), %eax
	movaps	%xmm0, %xmm1
	movd	%eax, %xmm0
	call	calcular_area_perimetro_rombo@PLT
	nop
	movq	-8(%rbp), %rax
	subq	%fs:40, %rax
	je	.L13
	call	__stack_chk_fail@PLT
.L13:
	leave
	.cfi_def_cfa 7, 8
	ret
	.cfi_endproc
.LFE5:
	.size	calcularRombo, .-calcularRombo
	.section	.rodata
	.align 8
.LC22:
	.string	"Ingrese la longitud de la base 1: "
	.align 8
.LC23:
	.string	"Ingrese la longitud de la base 2: "
.LC24:
	.string	"Ingrese la altura: "
	.text
	.globl	calcularTrapecio
	.type	calcularTrapecio, @function
calcularTrapecio:
.LFB6:
	.cfi_startproc
	endbr64
	pushq	%rbp
	.cfi_def_cfa_offset 16
	.cfi_offset 6, -16
	movq	%rsp, %rbp
	.cfi_def_cfa_register 6
	subq	$32, %rsp
	movq	%fs:40, %rax
	movq	%rax, -8(%rbp)
	xorl	%eax, %eax
	leaq	.LC22(%rip), %rax
	movq	%rax, %rdi
	movl	$0, %eax
	call	printf@PLT
	leaq	-20(%rbp), %rax
	movq	%rax, %rsi
	leaq	.LC12(%rip), %rax
	movq	%rax, %rdi
	movl	$0, %eax
	call	__isoc99_scanf@PLT
	leaq	.LC23(%rip), %rax
	movq	%rax, %rdi
	movl	$0, %eax
	call	printf@PLT
	leaq	-16(%rbp), %rax
	movq	%rax, %rsi
	leaq	.LC12(%rip), %rax
	movq	%rax, %rdi
	movl	$0, %eax
	call	__isoc99_scanf@PLT
	leaq	.LC24(%rip), %rax
	movq	%rax, %rdi
	movl	$0, %eax
	call	printf@PLT
	leaq	-12(%rbp), %rax
	movq	%rax, %rsi
	leaq	.LC12(%rip), %rax
	movq	%rax, %rdi
	movl	$0, %eax
	call	__isoc99_scanf@PLT
	movss	-12(%rbp), %xmm1
	movss	-16(%rbp), %xmm0
	movl	-20(%rbp), %eax
	movaps	%xmm1, %xmm2
	movaps	%xmm0, %xmm1
	movd	%eax, %xmm0
	call	calcular_area_perimetro_trapecio@PLT
	nop
	movq	-8(%rbp), %rax
	subq	%fs:40, %rax
	je	.L15
	call	__stack_chk_fail@PLT
.L15:
	leave
	.cfi_def_cfa 7, 8
	ret
	.cfi_endproc
.LFE6:
	.size	calcularTrapecio, .-calcularTrapecio
	.section	.rodata
	.align 8
.LC25:
	.string	"Ingrese el radio del c\303\255rculo: "
	.text
	.globl	calcularCirculo
	.type	calcularCirculo, @function
calcularCirculo:
.LFB7:
	.cfi_startproc
	endbr64
	pushq	%rbp
	.cfi_def_cfa_offset 16
	.cfi_offset 6, -16
	movq	%rsp, %rbp
	.cfi_def_cfa_register 6
	subq	$16, %rsp
	movq	%fs:40, %rax
	movq	%rax, -8(%rbp)
	xorl	%eax, %eax
	leaq	.LC25(%rip), %rax
	movq	%rax, %rdi
	movl	$0, %eax
	call	printf@PLT
	leaq	-12(%rbp), %rax
	movq	%rax, %rsi
	leaq	.LC12(%rip), %rax
	movq	%rax, %rdi
	movl	$0, %eax
	call	__isoc99_scanf@PLT
	movl	-12(%rbp), %eax
	movd	%eax, %xmm0
	call	calcular_area_perimetro_circulo@PLT
	nop
	movq	-8(%rbp), %rax
	subq	%fs:40, %rax
	je	.L17
	call	__stack_chk_fail@PLT
.L17:
	leave
	.cfi_def_cfa 7, 8
	ret
	.cfi_endproc
.LFE7:
	.size	calcularCirculo, .-calcularCirculo
	.section	.rodata
	.align 8
.LC26:
	.string	"Ingrese el n\303\272mero de lados del pol\303\255gono regular: "
	.align 8
.LC27:
	.string	"Ingrese la longitud del lado: "
	.text
	.globl	calcularPoligonoRegular
	.type	calcularPoligonoRegular, @function
calcularPoligonoRegular:
.LFB8:
	.cfi_startproc
	endbr64
	pushq	%rbp
	.cfi_def_cfa_offset 16
	.cfi_offset 6, -16
	movq	%rsp, %rbp
	.cfi_def_cfa_register 6
	subq	$16, %rsp
	movq	%fs:40, %rax
	movq	%rax, -8(%rbp)
	xorl	%eax, %eax
	leaq	.LC26(%rip), %rax
	movq	%rax, %rdi
	movl	$0, %eax
	call	printf@PLT
	leaq	-16(%rbp), %rax
	movq	%rax, %rsi
	leaq	.LC10(%rip), %rax
	movq	%rax, %rdi
	movl	$0, %eax
	call	__isoc99_scanf@PLT
	leaq	.LC27(%rip), %rax
	movq	%rax, %rdi
	movl	$0, %eax
	call	printf@PLT
	leaq	-12(%rbp), %rax
	movq	%rax, %rsi
	leaq	.LC12(%rip), %rax
	movq	%rax, %rdi
	movl	$0, %eax
	call	__isoc99_scanf@PLT
	movl	-12(%rbp), %edx
	movl	-16(%rbp), %eax
	movd	%edx, %xmm0
	movl	%eax, %edi
	call	calcular_area_perimetro_poligono@PLT
	nop
	movq	-8(%rbp), %rax
	subq	%fs:40, %rax
	je	.L19
	call	__stack_chk_fail@PLT
.L19:
	leave
	.cfi_def_cfa 7, 8
	ret
	.cfi_endproc
.LFE8:
	.size	calcularPoligonoRegular, .-calcularPoligonoRegular
	.section	.rodata
	.align 8
.LC28:
	.string	"Seleccione la figura a calcular el volumen y la superficie de a figura"
.LC29:
	.string	"1. Cubo"
.LC30:
	.string	"2. Cuboide"
.LC31:
	.string	"3. Cilindro Recto"
.LC32:
	.string	"4. Esfera"
.LC33:
	.string	"5. Cono Circular Recto"
	.text
	.globl	seleccionarFiguraVolumen
	.type	seleccionarFiguraVolumen, @function
seleccionarFiguraVolumen:
.LFB9:
	.cfi_startproc
	endbr64
	pushq	%rbp
	.cfi_def_cfa_offset 16
	.cfi_offset 6, -16
	movq	%rsp, %rbp
	.cfi_def_cfa_register 6
	subq	$16, %rsp
	movq	%fs:40, %rax
	movq	%rax, -8(%rbp)
	xorl	%eax, %eax
	leaq	.LC28(%rip), %rax
	movq	%rax, %rdi
	call	puts@PLT
	leaq	.LC29(%rip), %rax
	movq	%rax, %rdi
	call	puts@PLT
	leaq	.LC30(%rip), %rax
	movq	%rax, %rdi
	call	puts@PLT
	leaq	.LC31(%rip), %rax
	movq	%rax, %rdi
	call	puts@PLT
	leaq	.LC32(%rip), %rax
	movq	%rax, %rdi
	call	puts@PLT
	leaq	.LC33(%rip), %rax
	movq	%rax, %rdi
	call	puts@PLT
	leaq	.LC9(%rip), %rax
	movq	%rax, %rdi
	movl	$0, %eax
	call	printf@PLT
	leaq	-12(%rbp), %rax
	movq	%rax, %rsi
	leaq	.LC10(%rip), %rax
	movq	%rax, %rdi
	movl	$0, %eax
	call	__isoc99_scanf@PLT
	movl	-12(%rbp), %eax
	movq	-8(%rbp), %rdx
	subq	%fs:40, %rdx
	je	.L22
	call	__stack_chk_fail@PLT
.L22:
	leave
	.cfi_def_cfa 7, 8
	ret
	.cfi_endproc
.LFE9:
	.size	seleccionarFiguraVolumen, .-seleccionarFiguraVolumen
	.section	.rodata
	.align 8
.LC34:
	.string	"Cuanto mide los lados del cubo: "
	.text
	.globl	calcularCubo
	.type	calcularCubo, @function
calcularCubo:
.LFB10:
	.cfi_startproc
	endbr64
	pushq	%rbp
	.cfi_def_cfa_offset 16
	.cfi_offset 6, -16
	movq	%rsp, %rbp
	.cfi_def_cfa_register 6
	subq	$16, %rsp
	movq	%fs:40, %rax
	movq	%rax, -8(%rbp)
	xorl	%eax, %eax
	leaq	.LC34(%rip), %rax
	movq	%rax, %rdi
	movl	$0, %eax
	call	printf@PLT
	leaq	-12(%rbp), %rax
	movq	%rax, %rsi
	leaq	.LC12(%rip), %rax
	movq	%rax, %rdi
	movl	$0, %eax
	call	__isoc99_scanf@PLT
	movl	-12(%rbp), %eax
	movd	%eax, %xmm0
	call	calcular_superficie_volumen_cubo@PLT
	nop
	movq	-8(%rbp), %rax
	subq	%fs:40, %rax
	je	.L24
	call	__stack_chk_fail@PLT
.L24:
	leave
	.cfi_def_cfa 7, 8
	ret
	.cfi_endproc
.LFE10:
	.size	calcularCubo, .-calcularCubo
	.section	.rodata
	.align 8
.LC35:
	.string	"Cuanto mide el largo del cuboide: "
	.align 8
.LC36:
	.string	"Cuanto mide el ancho del cuboide: "
	.align 8
.LC37:
	.string	"Cuanto mide el alto del cuboide: "
	.text
	.globl	calcularCuboide
	.type	calcularCuboide, @function
calcularCuboide:
.LFB11:
	.cfi_startproc
	endbr64
	pushq	%rbp
	.cfi_def_cfa_offset 16
	.cfi_offset 6, -16
	movq	%rsp, %rbp
	.cfi_def_cfa_register 6
	subq	$32, %rsp
	movq	%fs:40, %rax
	movq	%rax, -8(%rbp)
	xorl	%eax, %eax
	leaq	.LC35(%rip), %rax
	movq	%rax, %rdi
	movl	$0, %eax
	call	printf@PLT
	leaq	-20(%rbp), %rax
	movq	%rax, %rsi
	leaq	.LC12(%rip), %rax
	movq	%rax, %rdi
	movl	$0, %eax
	call	__isoc99_scanf@PLT
	leaq	.LC36(%rip), %rax
	movq	%rax, %rdi
	movl	$0, %eax
	call	printf@PLT
	leaq	-16(%rbp), %rax
	movq	%rax, %rsi
	leaq	.LC12(%rip), %rax
	movq	%rax, %rdi
	movl	$0, %eax
	call	__isoc99_scanf@PLT
	leaq	.LC37(%rip), %rax
	movq	%rax, %rdi
	movl	$0, %eax
	call	printf@PLT
	leaq	-12(%rbp), %rax
	movq	%rax, %rsi
	leaq	.LC12(%rip), %rax
	movq	%rax, %rdi
	movl	$0, %eax
	call	__isoc99_scanf@PLT
	movss	-12(%rbp), %xmm1
	movss	-16(%rbp), %xmm0
	movl	-20(%rbp), %eax
	movaps	%xmm1, %xmm2
	movaps	%xmm0, %xmm1
	movd	%eax, %xmm0
	call	calcular_superficie_volumen_cuboide@PLT
	nop
	movq	-8(%rbp), %rax
	subq	%fs:40, %rax
	je	.L26
	call	__stack_chk_fail@PLT
.L26:
	leave
	.cfi_def_cfa 7, 8
	ret
	.cfi_endproc
.LFE11:
	.size	calcularCuboide, .-calcularCuboide
	.section	.rodata
	.align 8
.LC38:
	.string	"Cuanto mide el radio del cilindro: "
	.align 8
.LC39:
	.string	"Cuanto mide la altura del cilindro: "
	.text
	.globl	calcularCilindroRecto
	.type	calcularCilindroRecto, @function
calcularCilindroRecto:
.LFB12:
	.cfi_startproc
	endbr64
	pushq	%rbp
	.cfi_def_cfa_offset 16
	.cfi_offset 6, -16
	movq	%rsp, %rbp
	.cfi_def_cfa_register 6
	subq	$16, %rsp
	movq	%fs:40, %rax
	movq	%rax, -8(%rbp)
	xorl	%eax, %eax
	leaq	.LC38(%rip), %rax
	movq	%rax, %rdi
	movl	$0, %eax
	call	printf@PLT
	leaq	-16(%rbp), %rax
	movq	%rax, %rsi
	leaq	.LC12(%rip), %rax
	movq	%rax, %rdi
	movl	$0, %eax
	call	__isoc99_scanf@PLT
	leaq	.LC39(%rip), %rax
	movq	%rax, %rdi
	movl	$0, %eax
	call	printf@PLT
	leaq	-12(%rbp), %rax
	movq	%rax, %rsi
	leaq	.LC12(%rip), %rax
	movq	%rax, %rdi
	movl	$0, %eax
	call	__isoc99_scanf@PLT
	movss	-12(%rbp), %xmm0
	movl	-16(%rbp), %eax
	movaps	%xmm0, %xmm1
	movd	%eax, %xmm0
	call	calcular_superficie_volumen_cilindro@PLT
	nop
	movq	-8(%rbp), %rax
	subq	%fs:40, %rax
	je	.L28
	call	__stack_chk_fail@PLT
.L28:
	leave
	.cfi_def_cfa 7, 8
	ret
	.cfi_endproc
.LFE12:
	.size	calcularCilindroRecto, .-calcularCilindroRecto
	.section	.rodata
	.align 8
.LC40:
	.string	"Cuanto mide el radio de la esfera: "
	.text
	.globl	calclarEsfera
	.type	calclarEsfera, @function
calclarEsfera:
.LFB13:
	.cfi_startproc
	endbr64
	pushq	%rbp
	.cfi_def_cfa_offset 16
	.cfi_offset 6, -16
	movq	%rsp, %rbp
	.cfi_def_cfa_register 6
	subq	$16, %rsp
	movq	%fs:40, %rax
	movq	%rax, -8(%rbp)
	xorl	%eax, %eax
	leaq	.LC40(%rip), %rax
	movq	%rax, %rdi
	movl	$0, %eax
	call	printf@PLT
	leaq	-12(%rbp), %rax
	movq	%rax, %rsi
	leaq	.LC12(%rip), %rax
	movq	%rax, %rdi
	movl	$0, %eax
	call	__isoc99_scanf@PLT
	movl	-12(%rbp), %eax
	movd	%eax, %xmm0
	call	calcular_superficie_volumen_esfera@PLT
	nop
	movq	-8(%rbp), %rax
	subq	%fs:40, %rax
	je	.L30
	call	__stack_chk_fail@PLT
.L30:
	leave
	.cfi_def_cfa 7, 8
	ret
	.cfi_endproc
.LFE13:
	.size	calclarEsfera, .-calclarEsfera
	.section	.rodata
	.align 8
.LC41:
	.string	"Cuanto mide el radio del cono circular: "
	.align 8
.LC42:
	.string	"Cuanto mide la altura del cono circular: "
	.text
	.globl	calcularConoCircularRecto
	.type	calcularConoCircularRecto, @function
calcularConoCircularRecto:
.LFB14:
	.cfi_startproc
	endbr64
	pushq	%rbp
	.cfi_def_cfa_offset 16
	.cfi_offset 6, -16
	movq	%rsp, %rbp
	.cfi_def_cfa_register 6
	subq	$16, %rsp
	movq	%fs:40, %rax
	movq	%rax, -8(%rbp)
	xorl	%eax, %eax
	leaq	.LC41(%rip), %rax
	movq	%rax, %rdi
	movl	$0, %eax
	call	printf@PLT
	leaq	-16(%rbp), %rax
	movq	%rax, %rsi
	leaq	.LC12(%rip), %rax
	movq	%rax, %rdi
	movl	$0, %eax
	call	__isoc99_scanf@PLT
	leaq	.LC42(%rip), %rax
	movq	%rax, %rdi
	movl	$0, %eax
	call	printf@PLT
	leaq	-12(%rbp), %rax
	movq	%rax, %rsi
	leaq	.LC12(%rip), %rax
	movq	%rax, %rdi
	movl	$0, %eax
	call	__isoc99_scanf@PLT
	movss	-12(%rbp), %xmm0
	movl	-16(%rbp), %eax
	movaps	%xmm0, %xmm1
	movd	%eax, %xmm0
	call	calcular_superficie_volumen_cono@PLT
	nop
	movq	-8(%rbp), %rax
	subq	%fs:40, %rax
	je	.L32
	call	__stack_chk_fail@PLT
.L32:
	leave
	.cfi_def_cfa 7, 8
	ret
	.cfi_endproc
.LFE14:
	.size	calcularConoCircularRecto, .-calcularConoCircularRecto
	.ident	"GCC: (Ubuntu 14.2.0-4ubuntu2) 14.2.0"
	.section	.note.GNU-stack,"",@progbits
	.section	.note.gnu.property,"a"
	.align 8
	.long	1f - 0f
	.long	4f - 1f
	.long	5
0:
	.string	"GNU"
1:
	.align 8
	.long	0xc0000002
	.long	3f - 2f
2:
	.long	0x3
3:
	.align 8
4:
